target datalayout = "e-m:e-p270:32:32-p271:32:32-p272:64:64-i64:64-i128:128-f80:128-n8:16:32:64-S128"
target triple = "x86_64-pc-linux-gnu"

; Function Attrs: nounwind uwtable
define hidden void @aom_horizontal_line_2_1_scale_c(ptr noundef %0, i32 noundef %1, ptr noundef %2, i32 noundef %3) #0 {
  %5 = alloca ptr, align 8
  %6 = alloca i32, align 4
  %7 = alloca ptr, align 8
  %8 = alloca i32, align 4
  %9 = alloca ptr, align 8
  store ptr %0, ptr %5, align 8
  store i32 %1, ptr %6, align 4
  store ptr %2, ptr %7, align 8
  store i32 %3, ptr %8, align 4
  %10 = load ptr, ptr %5, align 8
  %11 = load i32, ptr %6, align 4
  %12 = zext i32 %11 to i64
  %13 = getelementptr inbounds i8, ptr %10, i64 %12
  store ptr %13, ptr %9, align 8
  br label %14

14:                                               ; preds = %18, %4
  %15 = load ptr, ptr %5, align 8
  %16 = load ptr, ptr %9, align 8
  %17 = icmp ult ptr %15, %16
  br i1 %17, label %18, label %28

18:                                               ; preds = %14
  %19 = load ptr, ptr %5, align 8
  %20 = getelementptr inbounds i8, ptr %19, i64 0
  %21 = load i8, ptr %20, align 1
  %22 = load ptr, ptr %7, align 8
  %23 = getelementptr inbounds i8, ptr %22, i64 0
  store i8 %21, ptr %23, align 1
  %24 = load ptr, ptr %5, align 8
  %25 = getelementptr inbounds i8, ptr %24, i64 2
  store ptr %25, ptr %5, align 8
  %26 = load ptr, ptr %7, align 8
  %27 = getelementptr inbounds i8, ptr %26, i32 1
  store ptr %27, ptr %7, align 8
  br label %14, !llvm.loop !9

28:                                               ; preds = %14
  ret void
}