; Function Attrs: nofree norecurse nosync nounwind memory(argmem: readwrite) uwtable
define hidden void @aom_horizontal_line_2_1_scale_c(ptr noundef readonly %0, i32 noundef %1, ptr noundef writeonly captures(none) %2, i32 noundef %3) local_unnamed_addr #0 {
  %5 = zext i32 %1 to i64
  %6 = getelementptr inbounds nuw i8, ptr %0, i64 %5
  %.not = icmp eq i32 %1, 0
  br i1 %.not, label %._crit_edge, label %.lr.ph

.lr.ph:                                           ; preds = %4, %.lr.ph
  %.09 = phi ptr [ %8, %.lr.ph ], [ %0, %4 ]
  %.078 = phi ptr [ %9, %.lr.ph ], [ %2, %4 ]
  %7 = load i8, ptr %.09, align 1
  store i8 %7, ptr %.078, align 1
  %8 = getelementptr inbounds nuw i8, ptr %.09, i64 2
  %9 = getelementptr inbounds nuw i8, ptr %.078, i64 1
  %10 = icmp ult ptr %8, %6
  br i1 %10, label %.lr.ph, label %._crit_edge, !llvm.loop !9

._crit_edge:                                      ; preds = %.lr.ph, %4
  ret void
}